target datalayout = "e-m:e-p270:32:32-p271:32:32-p272:64:64-i64:64-i128:128-f80:128-n8:16:32:64-S128"
target triple = "x86_64-pc-linux-gnu"

%struct._object = type { %union.anon, ptr }
%union.anon = type { i64 }
%struct._typeobject = type { %struct.PyVarObject, ptr, i64, i64, ptr, i64, ptr, ptr, ptr, ptr, ptr, ptr, ptr, ptr, ptr, ptr, ptr, ptr, ptr, i64, ptr, ptr, ptr, ptr, i64, ptr, ptr, ptr, ptr, ptr, ptr, ptr, ptr, ptr, i64, ptr, ptr, ptr, ptr, ptr, ptr, ptr, ptr, ptr, ptr, ptr, i32, ptr, ptr, i8, i16 }
%struct.PyVarObject = type { %struct._object, i64 }
%struct.array_state = type { ptr, ptr, ptr, ptr, ptr, ptr, ptr }
%struct.arraydescr = type { i8, i32, ptr, ptr, ptr, ptr, i32, i32 }
%struct.PyModuleObject = type { %struct._object, ptr, ptr, ptr, ptr, ptr }
%struct.arrayobject = type { %struct.PyVarObject, ptr, i64, ptr, ptr, i64 }

@PyExc_TypeError = external global ptr, align 8
@.str.127 = private unnamed_addr constant [46 x i8] c"can only append array (not \22%.200s\22) to array\00", align 1

; Function Attrs: inlinehint nounwind uwtable
define internal i32 @Py_IS_TYPE(ptr noundef %0, ptr noundef %1) #3 {
  %3 = alloca ptr, align 8
  %4 = alloca ptr, align 8
  store ptr %0, ptr %3, align 8, !tbaa !3
  store ptr %1, ptr %4, align 8, !tbaa !18
  %5 = load ptr, ptr %3, align 8, !tbaa !3
  %6 = call ptr @_Py_TYPE(ptr noundef %5)
  %7 = load ptr, ptr %4, align 8, !tbaa !18
  %8 = icmp eq ptr %6, %7
  %9 = zext i1 %8 to i32
  ret i32 %9
}

; Function Attrs: inlinehint nounwind uwtable
define internal ptr @_PyModule_GetState(ptr noundef %0) #3 {
  %2 = alloca ptr, align 8
  store ptr %0, ptr %2, align 8, !tbaa !3
  %3 = load ptr, ptr %2, align 8, !tbaa !3
  %4 = getelementptr inbounds nuw %struct.PyModuleObject, ptr %3, i32 0, i32 3
  %5 = load ptr, ptr %4, align 8, !tbaa !65
  ret ptr %5
}

; Function Attrs: inlinehint nounwind uwtable
define internal i64 @Py_SIZE(ptr noundef %0) #3 {
  %2 = alloca ptr, align 8
  store ptr %0, ptr %2, align 8, !tbaa !3
  %3 = load ptr, ptr %2, align 8, !tbaa !3
  %4 = getelementptr inbounds nuw %struct.PyVarObject, ptr %3, i32 0, i32 1
  %5 = load i64, ptr %4, align 8, !tbaa !62
  ret i64 %5
}

; Function Attrs: inlinehint nounwind uwtable
define internal i32 @PyObject_TypeCheck(ptr noundef %0, ptr noundef %1) #3 {
  %3 = alloca ptr, align 8
  %4 = alloca ptr, align 8
  store ptr %0, ptr %3, align 8, !tbaa !3
  store ptr %1, ptr %4, align 8, !tbaa !18
  %5 = load ptr, ptr %3, align 8, !tbaa !3
  %6 = load ptr, ptr %4, align 8, !tbaa !18
  %7 = call i32 @Py_IS_TYPE(ptr noundef %5, ptr noundef %6)
  %8 = icmp ne i32 %7, 0
  br i1 %8, label %15, label %9

9:                                                ; preds = %2
  %10 = load ptr, ptr %3, align 8, !tbaa !3
  %11 = call ptr @_Py_TYPE(ptr noundef %10)
  %12 = load ptr, ptr %4, align 8, !tbaa !18
  %13 = call i32 @PyType_IsSubtype(ptr noundef %11, ptr noundef %12)
  %14 = icmp ne i32 %13, 0
  br label %15

15:                                               ; preds = %9, %2
  %16 = phi i1 [ true, %2 ], [ %14, %9 ]
  %17 = zext i1 %16 to i32
  ret i32 %17
}

; Function Attrs: nounwind uwtable
define internal ptr @get_array_state(ptr noundef %0) #0 {
  %2 = alloca ptr, align 8
  store ptr %0, ptr %2, align 8, !tbaa !3
  %3 = load ptr, ptr %2, align 8, !tbaa !3
  %4 = call ptr @_PyModule_GetState(ptr noundef %3)
  ret ptr %4
}

; Function Attrs: inlinehint nounwind uwtable
define internal ptr @_Py_TYPE(ptr noundef %0) #3 {
  %2 = alloca ptr, align 8
  store ptr %0, ptr %2, align 8, !tbaa !3
  %3 = load ptr, ptr %2, align 8, !tbaa !3
  %4 = getelementptr inbounds nuw %struct._object, ptr %3, i32 0, i32 1
  %5 = load ptr, ptr %4, align 8, !tbaa !32
  ret ptr %5
}

; Function Attrs: nounwind uwtable
define internal ptr @array_concat(ptr noundef %0, ptr noundef %1) #0 {
  %3 = alloca ptr, align 8
  %4 = alloca ptr, align 8
  %5 = alloca ptr, align 8
  %6 = alloca ptr, align 8
  %7 = alloca i64, align 8
  %8 = alloca ptr, align 8
  %9 = alloca i32, align 4
  store ptr %0, ptr %4, align 8, !tbaa !68
  store ptr %1, ptr %5, align 8, !tbaa !3
  call void @llvm.lifetime.start.p0(i64 8, ptr %6) #8
  %10 = load ptr, ptr %4, align 8, !tbaa !68
  %11 = call ptr @_Py_TYPE(ptr noundef %10)
  %12 = call ptr @PyType_GetModuleByDef(ptr noundef %11, ptr noundef @arraymodule)
  %13 = call ptr @get_array_state(ptr noundef %12)
  store ptr %13, ptr %6, align 8, !tbaa !8
  call void @llvm.lifetime.start.p0(i64 8, ptr %7) #8
  call void @llvm.lifetime.start.p0(i64 8, ptr %8) #8
  %14 = load ptr, ptr %5, align 8, !tbaa !3
  %15 = load ptr, ptr %6, align 8, !tbaa !8
  %16 = getelementptr inbounds nuw %struct.array_state, ptr %15, i32 0, i32 0
  %17 = load ptr, ptr %16, align 8, !tbaa !9
  %18 = call i32 @PyObject_TypeCheck(ptr noundef %14, ptr noundef %17)
  %19 = icmp ne i32 %18, 0
  br i1 %19, label %27, label %20

20:                                               ; preds = %2
  %21 = load ptr, ptr @PyExc_TypeError, align 8, !tbaa !3
  %22 = load ptr, ptr %5, align 8, !tbaa !3
  %23 = call ptr @_Py_TYPE(ptr noundef %22)
  %24 = getelementptr inbounds nuw %struct._typeobject, ptr %23, i32 0, i32 1
  %25 = load ptr, ptr %24, align 8, !tbaa !38
  %26 = call ptr (ptr, ptr, ...) @PyErr_Format(ptr noundef %21, ptr noundef @.str.127, ptr noundef %25)
  store ptr null, ptr %3, align 8
  store i32 1, ptr %9, align 4
  br label %115

27:                                               ; preds = %2
  %28 = load ptr, ptr %4, align 8, !tbaa !68
  %29 = getelementptr inbounds nuw %struct.arrayobject, ptr %28, i32 0, i32 3
  %30 = load ptr, ptr %29, align 8, !tbaa !99
  %31 = load ptr, ptr %5, align 8, !tbaa !3
  %32 = getelementptr inbounds nuw %struct.arrayobject, ptr %31, i32 0, i32 3
  %33 = load ptr, ptr %32, align 8, !tbaa !99
  %34 = icmp ne ptr %30, %33
  br i1 %34, label %35, label %37

35:                                               ; preds = %27
  %36 = call i32 @PyErr_BadArgument()
  store ptr null, ptr %3, align 8
  store i32 1, ptr %9, align 4
  br label %115

37:                                               ; preds = %27
  %38 = load ptr, ptr %4, align 8, !tbaa !68
  %39 = call i64 @Py_SIZE(ptr noundef %38)
  %40 = load ptr, ptr %5, align 8, !tbaa !3
  %41 = call i64 @Py_SIZE(ptr noundef %40)
  %42 = sub i64 9223372036854775807, %41
  %43 = icmp sgt i64 %39, %42
  br i1 %43, label %44, label %46

44:                                               ; preds = %37
  %45 = call ptr @PyErr_NoMemory()
  store ptr %45, ptr %3, align 8
  store i32 1, ptr %9, align 4
  br label %115

46:                                               ; preds = %37
  %47 = load ptr, ptr %4, align 8, !tbaa !68
  %48 = call i64 @Py_SIZE(ptr noundef %47)
  %49 = load ptr, ptr %5, align 8, !tbaa !3
  %50 = call i64 @Py_SIZE(ptr noundef %49)
  %51 = add i64 %48, %50
  store i64 %51, ptr %7, align 8, !tbaa !21
  %52 = load ptr, ptr %6, align 8, !tbaa !8
  %53 = getelementptr inbounds nuw %struct.array_state, ptr %52, i32 0, i32 0
  %54 = load ptr, ptr %53, align 8, !tbaa !9
  %55 = load i64, ptr %7, align 8, !tbaa !21
  %56 = load ptr, ptr %4, align 8, !tbaa !68
  %57 = getelementptr inbounds nuw %struct.arrayobject, ptr %56, i32 0, i32 3
  %58 = load ptr, ptr %57, align 8, !tbaa !99
  %59 = call ptr @newarrayobject(ptr noundef %54, i64 noundef %55, ptr noundef %58)
  store ptr %59, ptr %8, align 8, !tbaa !68
  %60 = load ptr, ptr %8, align 8, !tbaa !68
  %61 = icmp eq ptr %60, null
  br i1 %61, label %62, label %63

62:                                               ; preds = %46
  store ptr null, ptr %3, align 8
  store i32 1, ptr %9, align 4
  br label %115

63:                                               ; preds = %46
  %64 = load ptr, ptr %4, align 8, !tbaa !68
  %65 = call i64 @Py_SIZE(ptr noundef %64)
  %66 = icmp sgt i64 %65, 0
  br i1 %66, label %67, label %83

67:                                               ; preds = %63
  %68 = load ptr, ptr %8, align 8, !tbaa !68
  %69 = getelementptr inbounds nuw %struct.arrayobject, ptr %68, i32 0, i32 1
  %70 = load ptr, ptr %69, align 8, !tbaa !70
  %71 = load ptr, ptr %4, align 8, !tbaa !68
  %72 = getelementptr inbounds nuw %struct.arrayobject, ptr %71, i32 0, i32 1
  %73 = load ptr, ptr %72, align 8, !tbaa !70
  %74 = load ptr, ptr %4, align 8, !tbaa !68
  %75 = call i64 @Py_SIZE(ptr noundef %74)
  %76 = load ptr, ptr %4, align 8, !tbaa !68
  %77 = getelementptr inbounds nuw %struct.arrayobject, ptr %76, i32 0, i32 3
  %78 = load ptr, ptr %77, align 8, !tbaa !99
  %79 = getelementptr inbounds nuw %struct.arraydescr, ptr %78, i32 0, i32 1
  %80 = load i32, ptr %79, align 4, !tbaa !52
  %81 = sext i32 %80 to i64
  %82 = mul i64 %75, %81
  call void @llvm.memcpy.p0.p0.i64(ptr align 1 %70, ptr align 1 %73, i64 %82, i1 false)
  br label %83

83:                                               ; preds = %67, %63
  %84 = load ptr, ptr %5, align 8, !tbaa !3
  %85 = call i64 @Py_SIZE(ptr noundef %84)
  %86 = icmp sgt i64 %85, 0
  br i1 %86, label %87, label %113

87:                                               ; preds = %83
  %88 = load ptr, ptr %8, align 8, !tbaa !68
  %89 = getelementptr inbounds nuw %struct.arrayobject, ptr %88, i32 0, i32 1
  %90 = load ptr, ptr %89, align 8, !tbaa !70
  %91 = load ptr, ptr %4, align 8, !tbaa !68
  %92 = call i64 @Py_SIZE(ptr noundef %91)
  %93 = load ptr, ptr %4, align 8, !tbaa !68
  %94 = getelementptr inbounds nuw %struct.arrayobject, ptr %93, i32 0, i32 3
  %95 = load ptr, ptr %94, align 8, !tbaa !99
  %96 = getelementptr inbounds nuw %struct.arraydescr, ptr %95, i32 0, i32 1
  %97 = load i32, ptr %96, align 4, !tbaa !52
  %98 = sext i32 %97 to i64
  %99 = mul i64 %92, %98
  %100 = getelementptr i8, ptr %90, i64 %99
  %101 = load ptr, ptr %5, align 8, !tbaa !3
  %102 = getelementptr inbounds nuw %struct.arrayobject, ptr %101, i32 0, i32 1
  %103 = load ptr, ptr %102, align 8, !tbaa !70
  %104 = load ptr, ptr %5, align 8, !tbaa !3
  %105 = call i64 @Py_SIZE(ptr noundef %104)
  %106 = load ptr, ptr %5, align 8, !tbaa !3
  %107 = getelementptr inbounds nuw %struct.arrayobject, ptr %106, i32 0, i32 3
  %108 = load ptr, ptr %107, align 8, !tbaa !99
  %109 = getelementptr inbounds nuw %struct.arraydescr, ptr %108, i32 0, i32 1
  %110 = load i32, ptr %109, align 4, !tbaa !52
  %111 = sext i32 %110 to i64
  %112 = mul i64 %105, %111
  call void @llvm.memcpy.p0.p0.i64(ptr align 1 %100, ptr align 1 %103, i64 %112, i1 false)
  br label %113

113:                                              ; preds = %87, %83
  %114 = load ptr, ptr %8, align 8, !tbaa !68
  store ptr %114, ptr %3, align 8
  store i32 1, ptr %9, align 4
  br label %115

115:                                              ; preds = %113, %62, %44, %35, %20
  call void @llvm.lifetime.end.p0(i64 8, ptr %8) #8
  call void @llvm.lifetime.end.p0(i64 8, ptr %7) #8
  call void @llvm.lifetime.end.p0(i64 8, ptr %6) #8
  %116 = load ptr, ptr %3, align 8
  ret ptr %116
}