; Function Attrs: nounwind uwtable
define internal ptr @array_concat(ptr noundef readonly captures(none) %0, ptr noundef readonly captures(none) %1) #0 {
  %3 = getelementptr i8, ptr %0, i64 8
  %.val30 = load ptr, ptr %3, align 8, !tbaa !19
  %4 = tail call ptr @PyType_GetModuleByDef(ptr noundef %.val30, ptr noundef nonnull @arraymodule) #11
  %5 = getelementptr i8, ptr %4, i64 32
  %.val = load ptr, ptr %5, align 8, !tbaa !3
  %6 = load ptr, ptr %.val, align 8, !tbaa !12
  %7 = getelementptr i8, ptr %1, i64 8
  %.val40 = load ptr, ptr %7, align 8, !tbaa !19
  %.not.i = icmp eq ptr %.val40, %6
  br i1 %.not.i, label %PyObject_TypeCheck.exit.thread, label %PyObject_TypeCheck.exit

PyObject_TypeCheck.exit:                          ; preds = %2
  %8 = tail call i32 @PyType_IsSubtype(ptr noundef %.val40, ptr noundef %6) #11
  %.not42 = icmp eq i32 %8, 0
  br i1 %.not42, label %9, label %PyObject_TypeCheck.exit.thread

9:                                                ; preds = %PyObject_TypeCheck.exit
  %10 = load ptr, ptr @PyExc_TypeError, align 8, !tbaa !18
  %.val29 = load ptr, ptr %7, align 8, !tbaa !19
  %11 = getelementptr inbounds nuw i8, ptr %.val29, i64 24
  %12 = load ptr, ptr %11, align 8, !tbaa !35
  %13 = tail call ptr (ptr, ptr, ...) @PyErr_Format(ptr noundef %10, ptr noundef nonnull @.str.127, ptr noundef %12) #11
  br label %62

PyObject_TypeCheck.exit.thread:                   ; preds = %2, %PyObject_TypeCheck.exit
  %14 = getelementptr inbounds nuw i8, ptr %0, i64 40
  %15 = load ptr, ptr %14, align 8, !tbaa !76
  %16 = getelementptr inbounds nuw i8, ptr %1, i64 40
  %17 = load ptr, ptr %16, align 8, !tbaa !76
  %.not28 = icmp eq ptr %15, %17
  br i1 %.not28, label %20, label %18

18:                                               ; preds = %PyObject_TypeCheck.exit.thread
  %19 = tail call i32 @PyErr_BadArgument() #11
  br label %62

20:                                               ; preds = %PyObject_TypeCheck.exit.thread
  %21 = getelementptr i8, ptr %0, i64 16
  %.val39 = load i64, ptr %21, align 8, !tbaa !40
  %22 = getelementptr i8, ptr %1, i64 16
  %.val38 = load i64, ptr %22, align 8, !tbaa !40
  %23 = sub i64 9223372036854775807, %.val38
  %24 = icmp sgt i64 %.val39, %23
  br i1 %24, label %25, label %27

25:                                               ; preds = %20
  %26 = tail call ptr @PyErr_NoMemory() #11
  br label %62

27:                                               ; preds = %20
  %28 = add i64 %.val38, %.val39
  %29 = load ptr, ptr %.val, align 8, !tbaa !12
  %30 = tail call fastcc ptr @newarrayobject(ptr noundef %29, i64 noundef %28, ptr noundef %15)
  %31 = icmp eq ptr %30, null
  br i1 %31, label %62, label %32

32:                                               ; preds = %27
  %.val35 = load i64, ptr %21, align 8, !tbaa !40
  %33 = icmp sgt i64 %.val35, 0
  br i1 %33, label %34, label %44

34:                                               ; preds = %32
  %35 = getelementptr inbounds nuw i8, ptr %30, i64 24
  %36 = load ptr, ptr %35, align 8, !tbaa !53
  %37 = getelementptr inbounds nuw i8, ptr %0, i64 24
  %38 = load ptr, ptr %37, align 8, !tbaa !53
  %39 = load ptr, ptr %14, align 8, !tbaa !76
  %40 = getelementptr inbounds nuw i8, ptr %39, i64 4
  %41 = load i32, ptr %40, align 4, !tbaa !49
  %42 = sext i32 %41 to i64
  %43 = mul i64 %.val35, %42
  tail call void @llvm.memcpy.p0.p0.i64(ptr align 1 %36, ptr align 1 %38, i64 %43, i1 false)
  br label %44

44:                                               ; preds = %34, %32
  %.val33 = load i64, ptr %22, align 8, !tbaa !40
  %45 = icmp sgt i64 %.val33, 0
  br i1 %45, label %46, label %62

46:                                               ; preds = %44
  %47 = getelementptr inbounds nuw i8, ptr %30, i64 24
  %48 = load ptr, ptr %47, align 8, !tbaa !53
  %.val32 = load i64, ptr %21, align 8, !tbaa !40
  %49 = load ptr, ptr %14, align 8, !tbaa !76
  %50 = getelementptr inbounds nuw i8, ptr %49, i64 4
  %51 = load i32, ptr %50, align 4, !tbaa !49
  %52 = sext i32 %51 to i64
  %53 = mul i64 %.val32, %52
  %54 = getelementptr i8, ptr %48, i64 %53
  %55 = getelementptr inbounds nuw i8, ptr %1, i64 24
  %56 = load ptr, ptr %55, align 8, !tbaa !53
  %57 = load ptr, ptr %16, align 8, !tbaa !76
  %58 = getelementptr inbounds nuw i8, ptr %57, i64 4
  %59 = load i32, ptr %58, align 4, !tbaa !49
  %60 = sext i32 %59 to i64
  %61 = mul i64 %.val33, %60
  tail call void @llvm.memcpy.p0.p0.i64(ptr align 1 %54, ptr align 1 %56, i64 %61, i1 false)
  br label %62

62:                                               ; preds = %44, %46, %27, %25, %18, %9
  %.0 = phi ptr [ null, %18 ], [ %26, %25 ], [ null, %9 ], [ null, %27 ], [ %30, %46 ], [ %30, %44 ]
  ret ptr %.0
}